; Function Attrs: nounwind uwtable
define ptr @l_Lake_busyAcquireLockFile_busyLoop___lambda__1___boxed(ptr noundef %0, ptr noundef %1, ptr noundef %2) local_unnamed_addr #0 {
  %4 = tail call ptr @l_IO_sleep(i32 noundef 300, ptr noundef %2) #4
  %5 = getelementptr inbounds nuw i8, ptr %4, i64 16
  %6 = load ptr, ptr %5, align 8, !tbaa !4
  %7 = ptrtoint ptr %6 to i64
  %8 = and i64 %7, 1
  %.not.i9 = icmp eq i64 %8, 0
  br i1 %.not.i9, label %9, label %lean_inc.exit.i

9:                                                ; preds = %3
  %.val.i.i = load i32, ptr %6, align 4, !tbaa !8
  %10 = icmp sgt i32 %.val.i.i, 0
  br i1 %10, label %11, label %13, !prof !11

11:                                               ; preds = %9
  %12 = add nuw i32 %.val.i.i, 1
  store i32 %12, ptr %6, align 4, !tbaa !8
  br label %lean_inc.exit.i

13:                                               ; preds = %9
  %.not.i8.i = icmp eq i32 %.val.i.i, 0
  br i1 %.not.i8.i, label %lean_inc.exit.i, label %14

14:                                               ; preds = %13
  tail call void @lean_inc_ref_cold(ptr noundef nonnull %6) #4
  br label %lean_inc.exit.i

lean_inc.exit.i:                                  ; preds = %14, %13, %11, %3
  %15 = ptrtoint ptr %4 to i64
  %16 = and i64 %15, 1
  %.not9.i = icmp eq i64 %16, 0
  br i1 %.not9.i, label %17, label %l_Lake_busyAcquireLockFile_busyLoop___lambda__1.exit

17:                                               ; preds = %lean_inc.exit.i
  %18 = load i32, ptr %4, align 4, !tbaa !8
  %19 = icmp sgt i32 %18, 1
  br i1 %19, label %20, label %22, !prof !11

20:                                               ; preds = %17
  %21 = add nsw i32 %18, -1
  store i32 %21, ptr %4, align 4, !tbaa !8
  br label %l_Lake_busyAcquireLockFile_busyLoop___lambda__1.exit

22:                                               ; preds = %17
  %.not.i.i = icmp eq i32 %18, 0
  br i1 %.not.i.i, label %l_Lake_busyAcquireLockFile_busyLoop___lambda__1.exit, label %23

23:                                               ; preds = %22
  tail call void @lean_dec_ref_cold(ptr noundef nonnull %4) #4
  br label %l_Lake_busyAcquireLockFile_busyLoop___lambda__1.exit

l_Lake_busyAcquireLockFile_busyLoop___lambda__1.exit: ; preds = %lean_inc.exit.i, %20, %22, %23
  %24 = tail call ptr @l_Lake_busyAcquireLockFile_busyLoop(ptr noundef %0, i8 noundef zeroext 0, ptr noundef %6) #6
  %25 = ptrtoint ptr %1 to i64
  %26 = and i64 %25, 1
  %.not = icmp eq i64 %26, 0
  br i1 %.not, label %27, label %lean_dec.exit6

27:                                               ; preds = %l_Lake_busyAcquireLockFile_busyLoop___lambda__1.exit
  %28 = load i32, ptr %1, align 4, !tbaa !8
  %29 = icmp sgt i32 %28, 1
  br i1 %29, label %30, label %32, !prof !11

30:                                               ; preds = %27
  %31 = add nsw i32 %28, -1
  store i32 %31, ptr %1, align 4, !tbaa !8
  br label %lean_dec.exit6

32:                                               ; preds = %27
  %.not.i = icmp eq i32 %28, 0
  br i1 %.not.i, label %lean_dec.exit6, label %33

33:                                               ; preds = %32
  tail call void @lean_dec_ref_cold(ptr noundef nonnull %1) #4
  br label %lean_dec.exit6

lean_dec.exit6:                                   ; preds = %33, %32, %30, %l_Lake_busyAcquireLockFile_busyLoop___lambda__1.exit
  %34 = ptrtoint ptr %0 to i64
  %35 = and i64 %34, 1
  %.not10 = icmp eq i64 %35, 0
  br i1 %.not10, label %36, label %lean_dec.exit

36:                                               ; preds = %lean_dec.exit6
  %37 = load i32, ptr %0, align 4, !tbaa !8
  %38 = icmp sgt i32 %37, 1
  br i1 %38, label %39, label %41, !prof !11

39:                                               ; preds = %36
  %40 = add nsw i32 %37, -1
  store i32 %40, ptr %0, align 4, !tbaa !8
  br label %lean_dec.exit

41:                                               ; preds = %36
  %.not.i7 = icmp eq i32 %37, 0
  br i1 %.not.i7, label %lean_dec.exit, label %42

42:                                               ; preds = %41
  tail call void @lean_dec_ref_cold(ptr noundef nonnull %0) #4
  br label %lean_dec.exit

lean_dec.exit:                                    ; preds = %42, %41, %39, %lean_dec.exit6
  ret ptr %24
}